; Function Attrs: nounwind uwtable
define dso_local i32 @pg_dsplen(ptr noundef %0) local_unnamed_addr #0 {
  %2 = load ptr, ptr @DatabaseEncoding, align 8
  %3 = getelementptr inbounds nuw i8, ptr %2, i64 8
  %4 = load i32, ptr %3, align 8
  %5 = zext i32 %4 to i64
  %6 = getelementptr inbounds nuw [0 x %struct.pg_wchar_tbl], ptr @pg_wchar_table, i64 0, i64 %5, i32 3
  %7 = load ptr, ptr %6, align 8
  %8 = tail call i32 %7(ptr noundef %0) #13
  ret i32 %8
}